(dp0
S'admin'
p1
(lp2
S'kkIkU2VaARWGE'
p3
aS'Tue Apr  9 14:42:39 2013'
p4
asS'dddd'
p5
(lp6
S'2nPbqsBvtXjdA'
p7
aS'Tue Apr  9 14:42:31 2013'
p8
asS'han'
p9
(lp10
S'laal1A3LC52wU'
p11
aS'Tue Apr  9 14:42:12 2013'
p12
as.